; ModuleID = '23/933.c'
source_filename = "23/933.c"
target datalayout = "e-m:e-p270:32:32-p271:32:32-p272:64:64-i64:64-f80:128-n8:16:32:64-S128"
target triple = "x86_64-pc-linux-gnu"

@.str = private unnamed_addr constant [3 x i8] c"%s\00", align 1
@.str.1 = private unnamed_addr constant [2 x i8] c" \00", align 1

; Function Attrs: noinline nounwind uwtable
define dso_local void @main() #0 {
  %1 = alloca [100 x i8], align 16
  %2 = alloca [100 x [100 x i8]], align 16
  %3 = alloca i32, align 4
  %4 = alloca i32, align 4
  %5 = alloca i32, align 4
  %6 = bitcast [100 x [100 x i8]]* %2 to i8*
  call void @llvm.memset.p0i8.i64(i8* align 16 %6, i8 0, i64 10000, i1 false)
  store i32 0, i32* %3, align 4
  store i32 0, i32* %4, align 4
  %7 = getelementptr inbounds [100 x i8], [100 x i8]* %1, i64 0, i64 0
  %8 = call i32 (i8*, ...) bitcast (i32 (...)* @gets to i32 (i8*, ...)*)(i8* %7)
  store i32 0, i32* %5, align 4
  br label %9

9:                                                ; preds = %40, %0
  %10 = load i32, i32* %5, align 4
  %11 = sext i32 %10 to i64
  %12 = getelementptr inbounds [100 x i8], [100 x i8]* %1, i64 0, i64 %11
  %13 = load i8, i8* %12, align 1
  %14 = sext i8 %13 to i32
  %15 = icmp ne i32 %14, 0
  br i1 %15, label %16, label %43

16:                                               ; preds = %9
  %17 = load i32, i32* %5, align 4
  %18 = sext i32 %17 to i64
  %19 = getelementptr inbounds [100 x i8], [100 x i8]* %1, i64 0, i64 %18
  %20 = load i8, i8* %19, align 1
  %21 = sext i8 %20 to i32
  %22 = icmp ne i32 %21, 32
  br i1 %22, label %23, label %36

23:                                               ; preds = %16
  %24 = load i32, i32* %5, align 4
  %25 = sext i32 %24 to i64
  %26 = getelementptr inbounds [100 x i8], [100 x i8]* %1, i64 0, i64 %25
  %27 = load i8, i8* %26, align 1
  %28 = load i32, i32* %4, align 4
  %29 = sext i32 %28 to i64
  %30 = getelementptr inbounds [100 x [100 x i8]], [100 x [100 x i8]]* %2, i64 0, i64 %29
  %31 = load i32, i32* %3, align 4
  %32 = sext i32 %31 to i64
  %33 = getelementptr inbounds [100 x i8], [100 x i8]* %30, i64 0, i64 %32
  store i8 %27, i8* %33, align 1
  %34 = load i32, i32* %3, align 4
  %35 = add nsw i32 %34, 1
  store i32 %35, i32* %3, align 4
  br label %39

36:                                               ; preds = %16
  %37 = load i32, i32* %4, align 4
  %38 = add nsw i32 %37, 1
  store i32 %38, i32* %4, align 4
  store i32 0, i32* %3, align 4
  br label %39

39:                                               ; preds = %36, %23
  br label %40

40:                                               ; preds = %39
  %41 = load i32, i32* %5, align 4
  %42 = add nsw i32 %41, 1
  store i32 %42, i32* %5, align 4
  br label %9

43:                                               ; preds = %9
  %44 = load i32, i32* %4, align 4
  store i32 %44, i32* %5, align 4
  br label %45

45:                                               ; preds = %59, %43
  %46 = load i32, i32* %5, align 4
  %47 = icmp sge i32 %46, 0
  br i1 %47, label %48, label %62

48:                                               ; preds = %45
  %49 = load i32, i32* %5, align 4
  %50 = sext i32 %49 to i64
  %51 = getelementptr inbounds [100 x [100 x i8]], [100 x [100 x i8]]* %2, i64 0, i64 %50
  %52 = getelementptr inbounds [100 x i8], [100 x i8]* %51, i64 0, i64 0
  %53 = call i32 (i8*, ...) @printf(i8* getelementptr inbounds ([3 x i8], [3 x i8]* @.str, i64 0, i64 0), i8* %52)
  %54 = load i32, i32* %5, align 4
  %55 = icmp eq i32 %54, 0
  br i1 %55, label %56, label %57

56:                                               ; preds = %48
  br label %62

57:                                               ; preds = %48
  %58 = call i32 (i8*, ...) @printf(i8* getelementptr inbounds ([2 x i8], [2 x i8]* @.str.1, i64 0, i64 0))
  br label %59

59:                                               ; preds = %57
  %60 = load i32, i32* %5, align 4
  %61 = add nsw i32 %60, -1
  store i32 %61, i32* %5, align 4
  br label %45

62:                                               ; preds = %56, %45
  ret void
}

; Function Attrs: argmemonly nounwind willreturn
declare void @llvm.memset.p0i8.i64(i8* nocapture writeonly, i8, i64, i1 immarg) #1

declare dso_local i32 @gets(...) #2

declare dso_local i32 @printf(i8*, ...) #2


!llvm.module.flags = !{!0}
!llvm.ident = !{!1}

!0 = !{i32 1, !"wchar_size", i32 4}
!1 = !{!"clang version 10.0.0-4ubuntu1 "}
