; ModuleID = 'source-C-CXX/22/933.c'
source_filename = "source-C-CXX/22/933.c"
target datalayout = "e-m:e-p270:32:32-p271:32:32-p272:64:64-i64:64-f80:128-n8:16:32:64-S128"
target triple = "x86_64-pc-linux-gnu"

@.str = private unnamed_addr constant [3 x i8] c"%s\00", align 1

; Function Attrs: nounwind sspstrong uwtable
define dso_local void @main() local_unnamed_addr #0 {
  %1 = alloca [100 x i8], align 16
  %2 = alloca [100 x [100 x i8]], align 16
  %3 = getelementptr inbounds [100 x i8], [100 x i8]* %1, i64 0, i64 0
  call void @llvm.lifetime.start.p0i8(i64 100, i8* nonnull %3) #6
  %4 = getelementptr inbounds [100 x [100 x i8]], [100 x [100 x i8]]* %2, i64 0, i64 0, i64 0
  call void @llvm.lifetime.start.p0i8(i64 10000, i8* nonnull %4) #6
  call void @llvm.memset.p0i8.i64(i8* noundef nonnull align 16 dereferenceable(10000) %4, i8 0, i64 10000, i1 false)
  %5 = call i32 (i8*, ...) bitcast (i32 (...)* @gets to i32 (i8*, ...)*)(i8* nonnull %3) #6
  br label %6

6:                                                ; preds = %26, %0
  %7 = phi i64 [ %29, %26 ], [ 0, %0 ]
  %8 = phi i32 [ %27, %26 ], [ 0, %0 ]
  %9 = phi i32 [ %28, %26 ], [ 0, %0 ]
  %10 = getelementptr inbounds [100 x i8], [100 x i8]* %1, i64 0, i64 %7
  %11 = load i8, i8* %10, align 1, !tbaa !5
  switch i8 %11, label %19 [
    i8 0, label %12
    i8 32, label %24
  ]

12:                                               ; preds = %6
  %13 = icmp sgt i32 %9, -1
  br i1 %13, label %14, label %37

14:                                               ; preds = %12
  %15 = zext i32 %9 to i64
  %16 = getelementptr inbounds [100 x [100 x i8]], [100 x [100 x i8]]* %2, i64 0, i64 %15, i64 0
  %17 = call i32 (i8*, ...) @printf(i8* nonnull dereferenceable(1) getelementptr inbounds ([3 x i8], [3 x i8]* @.str, i64 0, i64 0), i8* nonnull %16)
  %18 = icmp eq i32 %9, 0
  br i1 %18, label %37, label %30

19:                                               ; preds = %6
  %20 = sext i32 %9 to i64
  %21 = sext i32 %8 to i64
  %22 = getelementptr inbounds [100 x [100 x i8]], [100 x [100 x i8]]* %2, i64 0, i64 %20, i64 %21
  store i8 %11, i8* %22, align 1, !tbaa !5
  %23 = add nsw i32 %8, 1
  br label %26

24:                                               ; preds = %6
  %25 = add nsw i32 %9, 1
  br label %26

26:                                               ; preds = %19, %24
  %27 = phi i32 [ %23, %19 ], [ 0, %24 ]
  %28 = phi i32 [ %9, %19 ], [ %25, %24 ]
  %29 = add nuw i64 %7, 1
  br label %6, !llvm.loop !8

30:                                               ; preds = %14, %30
  %31 = phi i64 [ %33, %30 ], [ %15, %14 ]
  %32 = call i32 @putchar(i32 32)
  %33 = add nsw i64 %31, -1
  %34 = getelementptr inbounds [100 x [100 x i8]], [100 x [100 x i8]]* %2, i64 0, i64 %33, i64 0
  %35 = call i32 (i8*, ...) @printf(i8* nonnull dereferenceable(1) getelementptr inbounds ([3 x i8], [3 x i8]* @.str, i64 0, i64 0), i8* nonnull %34)
  %36 = icmp eq i64 %33, 0
  br i1 %36, label %37, label %30, !llvm.loop !10

37:                                               ; preds = %30, %14, %12
  call void @llvm.lifetime.end.p0i8(i64 10000, i8* nonnull %4) #6
  call void @llvm.lifetime.end.p0i8(i64 100, i8* nonnull %3) #6
  ret void
}

; Function Attrs: argmemonly mustprogress nofree nosync nounwind willreturn
declare void @llvm.lifetime.start.p0i8(i64 immarg, i8* nocapture) #1

; Function Attrs: argmemonly mustprogress nofree nounwind willreturn writeonly
declare void @llvm.memset.p0i8.i64(i8* nocapture writeonly, i8, i64, i1 immarg) #2

declare i32 @gets(...) local_unnamed_addr #3

; Function Attrs: nofree nounwind
declare noundef i32 @printf(i8* nocapture noundef readonly, ...) local_unnamed_addr #4

; Function Attrs: argmemonly mustprogress nofree nosync nounwind willreturn
declare void @llvm.lifetime.end.p0i8(i64 immarg, i8* nocapture) #1

; Function Attrs: nofree nounwind
declare noundef i32 @putchar(i32 noundef) local_unnamed_addr #5


!llvm.module.flags = !{!0, !1, !2, !3}
!llvm.ident = !{!4}

!0 = !{i32 1, !"wchar_size", i32 4}
!1 = !{i32 7, !"PIC Level", i32 2}
!2 = !{i32 7, !"PIE Level", i32 2}
!3 = !{i32 7, !"uwtable", i32 1}
!4 = !{!"clang version 13.0.0"}
!5 = !{!6, !6, i64 0}
!6 = !{!"omnipotent char", !7, i64 0}
!7 = !{!"Simple C/C++ TBAA"}
!8 = distinct !{!8, !9}
!9 = !{!"llvm.loop.mustprogress"}
!10 = distinct !{!10, !9}
